target datalayout = "e-m:e-p270:32:32-p271:32:32-p272:64:64-i64:64-i128:128-f80:128-n8:16:32:64-S128"
target triple = "x86_64-pc-linux-gnu"

; Function Attrs: nounwind uwtable
define internal i32 @sfnt_is_alphanumeric(i32 noundef %0) #0 {
  %2 = alloca i32, align 4
  store i32 %0, ptr %2, align 4
  %3 = load i32, ptr %2, align 4
  %4 = sub i32 %3, 48
  %5 = icmp ult i32 %4, 10
  br i1 %5, label %16, label %6

6:                                                ; preds = %1
  %7 = load i32, ptr %2, align 4
  %8 = sub i32 %7, 65
  %9 = icmp ult i32 %8, 26
  br i1 %9, label %14, label %10

10:                                               ; preds = %6
  %11 = load i32, ptr %2, align 4
  %12 = sub i32 %11, 97
  %13 = icmp ult i32 %12, 26
  br label %14

14:                                               ; preds = %10, %6
  %15 = phi i1 [ true, %6 ], [ %13, %10 ]
  br label %16

16:                                               ; preds = %14, %1
  %17 = phi i1 [ true, %1 ], [ %15, %14 ]
  %18 = zext i1 %17 to i32
  ret i32 %18
}