; Function Attrs: mustprogress nofree norecurse nosync nounwind willreturn memory(none) uwtable
define internal range(i32 0, 2) i32 @sfnt_is_alphanumeric(i32 noundef %0) #8 {
  %2 = add i32 %0, -48
  %3 = icmp ult i32 %2, 10
  %4 = and i32 %0, -33
  %5 = add i32 %4, -65
  %6 = icmp ult i32 %5, 26
  %narrow = or i1 %3, %6
  %7 = zext i1 %narrow to i32
  ret i32 %7
}